; Function Attrs: nounwind uwtable
define ptr @l_Lean_Meta_substCore_x3f___boxed(ptr noundef %0, ptr noundef %1, ptr noundef %2, ptr noundef %3, ptr noundef %4, ptr noundef %5, ptr noundef %6, ptr noundef %7, ptr noundef %8, ptr noundef %9, ptr noundef %10) local_unnamed_addr #0 {
  %12 = ptrtoint ptr %2 to i64
  %13 = and i64 %12, 1
  %.not = icmp eq i64 %13, 0
  br i1 %.not, label %14, label %lean_dec.exit18

14:                                               ; preds = %11
  %15 = load i32, ptr %2, align 4, !tbaa !5
  %16 = icmp sgt i32 %15, 1
  br i1 %16, label %17, label %19, !prof !10

17:                                               ; preds = %14
  %18 = add nsw i32 %15, -1
  store i32 %18, ptr %2, align 4, !tbaa !5
  br label %lean_dec.exit18

19:                                               ; preds = %14
  %.not.i = icmp eq i32 %15, 0
  br i1 %.not.i, label %lean_dec.exit18, label %20

20:                                               ; preds = %19
  tail call void @lean_dec_ref_cold(ptr noundef nonnull %2) #4
  br label %lean_dec.exit18

lean_dec.exit18:                                  ; preds = %20, %19, %17, %11
  %21 = ptrtoint ptr %4 to i64
  %22 = and i64 %21, 1
  %.not23 = icmp eq i64 %22, 0
  br i1 %.not23, label %23, label %lean_dec.exit17

23:                                               ; preds = %lean_dec.exit18
  %24 = load i32, ptr %4, align 4, !tbaa !5
  %25 = icmp sgt i32 %24, 1
  br i1 %25, label %26, label %28, !prof !10

26:                                               ; preds = %23
  %27 = add nsw i32 %24, -1
  store i32 %27, ptr %4, align 4, !tbaa !5
  br label %lean_dec.exit17

28:                                               ; preds = %23
  %.not.i19 = icmp eq i32 %24, 0
  br i1 %.not.i19, label %lean_dec.exit17, label %29

29:                                               ; preds = %28
  tail call void @lean_dec_ref_cold(ptr noundef nonnull %4) #4
  br label %lean_dec.exit17

lean_dec.exit17:                                  ; preds = %29, %28, %26, %lean_dec.exit18
  %30 = ptrtoint ptr %5 to i64
  %31 = and i64 %30, 1
  %.not24 = icmp eq i64 %31, 0
  br i1 %.not24, label %32, label %lean_dec.exit

32:                                               ; preds = %lean_dec.exit17
  %33 = load i32, ptr %5, align 4, !tbaa !5
  %34 = icmp sgt i32 %33, 1
  br i1 %34, label %35, label %37, !prof !10

35:                                               ; preds = %32
  %36 = add nsw i32 %33, -1
  store i32 %36, ptr %5, align 4, !tbaa !5
  br label %lean_dec.exit

37:                                               ; preds = %32
  %.not.i21 = icmp eq i32 %33, 0
  br i1 %.not.i21, label %lean_dec.exit, label %38

38:                                               ; preds = %37
  tail call void @lean_dec_ref_cold(ptr noundef nonnull %5) #4
  br label %lean_dec.exit

lean_dec.exit:                                    ; preds = %38, %37, %35, %lean_dec.exit17
  tail call void @lean_inc_heartbeat() #4
  %39 = tail call noalias ptr @mi_malloc_small(i64 noundef 72) #4
  %40 = icmp eq ptr %39, null
  br i1 %40, label %41, label %l_Lean_Meta_substCore_x3f.exit

41:                                               ; preds = %lean_dec.exit
  tail call void @lean_internal_panic_out_of_memory() #5
  unreachable

l_Lean_Meta_substCore_x3f.exit:                   ; preds = %lean_dec.exit
  %42 = and i64 %30, 510
  %43 = or disjoint i64 %42, 1
  %44 = inttoptr i64 %43 to ptr
  %45 = and i64 %21, 510
  %46 = or disjoint i64 %45, 1
  %47 = inttoptr i64 %46 to ptr
  %48 = and i64 %12, 510
  %49 = or disjoint i64 %48, 1
  %50 = inttoptr i64 %49 to ptr
  %51 = getelementptr inbounds nuw i8, ptr %39, i64 4
  store i32 1, ptr %39, align 4, !tbaa !5
  store i32 -184549304, ptr %51, align 4
  %52 = getelementptr inbounds nuw i8, ptr %39, i64 8
  store ptr @l_Lean_Meta_substCore___boxed, ptr %52, align 8, !tbaa !11
  %53 = getelementptr inbounds nuw i8, ptr %39, i64 16
  store i16 11, ptr %53, align 8, !tbaa !16
  %54 = getelementptr inbounds nuw i8, ptr %39, i64 18
  store i16 6, ptr %54, align 2, !tbaa !16
  %55 = getelementptr inbounds nuw i8, ptr %39, i64 24
  store ptr %0, ptr %55, align 8, !tbaa !11
  %56 = getelementptr inbounds nuw i8, ptr %39, i64 32
  store ptr %1, ptr %56, align 8, !tbaa !11
  %57 = getelementptr inbounds nuw i8, ptr %39, i64 40
  store ptr %50, ptr %57, align 8, !tbaa !11
  %58 = getelementptr inbounds nuw i8, ptr %39, i64 48
  store ptr %3, ptr %58, align 8, !tbaa !11
  %59 = getelementptr inbounds nuw i8, ptr %39, i64 56
  store ptr %47, ptr %59, align 8, !tbaa !11
  %60 = getelementptr inbounds nuw i8, ptr %39, i64 64
  store ptr %44, ptr %60, align 8, !tbaa !11
  %61 = tail call ptr @l_Lean_observing_x3f___at_Lean_Meta_substCore_x3f___spec__1(ptr noundef nonnull %39, ptr noundef %6, ptr noundef %7, ptr noundef %8, ptr noundef %9, ptr noundef %10)
  ret ptr %61
}